target datalayout = "e-m:e-p270:32:32-p271:32:32-p272:64:64-i64:64-i128:128-f80:128-n8:16:32:64-S128"
target triple = "x86_64-unknown-linux-gnu"

%class.aiVector3t = type { float, float, float }

; Function Attrs: mustprogress nounwind uwtable
define linkonce_odr noundef float @_ZSt4sqrtf(float noundef %__x) #0 comdat {
entry:
  %__x.addr = alloca float, align 4
  store float %__x, ptr %__x.addr, align 4
  %0 = load float, ptr %__x.addr, align 4
  %call = call float @sqrtf(float noundef %0) #3
  ret float %call
}

; Function Attrs: mustprogress nounwind uwtable
define linkonce_odr hidden noundef float @_ZNK10aiVector3tIfE12SquareLengthEv(ptr noundef nonnull align 4 dereferenceable(12) %this) #0 comdat align 2 {
entry:
  %this.addr = alloca ptr, align 8
  store ptr %this, ptr %this.addr, align 8
  %this1 = load ptr, ptr %this.addr, align 8
  %x = getelementptr inbounds %class.aiVector3t, ptr %this1, i32 0, i32 0
  %0 = load float, ptr %x, align 4
  %x2 = getelementptr inbounds %class.aiVector3t, ptr %this1, i32 0, i32 0
  %1 = load float, ptr %x2, align 4
  %y = getelementptr inbounds %class.aiVector3t, ptr %this1, i32 0, i32 1
  %2 = load float, ptr %y, align 4
  %y3 = getelementptr inbounds %class.aiVector3t, ptr %this1, i32 0, i32 1
  %3 = load float, ptr %y3, align 4
  %mul4 = fmul float %2, %3
  %4 = call float @llvm.fmuladd.f32(float %0, float %1, float %mul4)
  %z = getelementptr inbounds %class.aiVector3t, ptr %this1, i32 0, i32 2
  %5 = load float, ptr %z, align 4
  %z5 = getelementptr inbounds %class.aiVector3t, ptr %this1, i32 0, i32 2
  %6 = load float, ptr %z5, align 4
  %7 = call float @llvm.fmuladd.f32(float %5, float %6, float %4)
  ret float %7
}

; Function Attrs: mustprogress nounwind uwtable
define linkonce_odr hidden noundef nonnull align 4 dereferenceable(12) ptr @_ZN10aiVector3tIfEdVEf(ptr noundef nonnull align 4 dereferenceable(12) %this, float noundef %f) #0 comdat align 2 {
entry:
  %retval = alloca ptr, align 8
  %this.addr = alloca ptr, align 8
  %f.addr = alloca float, align 4
  %invF = alloca float, align 4
  store ptr %this, ptr %this.addr, align 8
  store float %f, ptr %f.addr, align 4
  %this1 = load ptr, ptr %this.addr, align 8
  %0 = load float, ptr %f.addr, align 4
  %cmp = fcmp oeq float %0, 0.000000e+00
  br i1 %cmp, label %if.then, label %if.end

if.then:                                          ; preds = %entry
  store ptr %this1, ptr %retval, align 8
  br label %return

if.end:                                           ; preds = %entry
  %1 = load float, ptr %f.addr, align 4
  %div = fdiv float 1.000000e+00, %1
  store float %div, ptr %invF, align 4
  %2 = load float, ptr %invF, align 4
  %x = getelementptr inbounds %class.aiVector3t, ptr %this1, i32 0, i32 0
  %3 = load float, ptr %x, align 4
  %mul = fmul float %3, %2
  store float %mul, ptr %x, align 4
  %4 = load float, ptr %invF, align 4
  %y = getelementptr inbounds %class.aiVector3t, ptr %this1, i32 0, i32 1
  %5 = load float, ptr %y, align 4
  %mul2 = fmul float %5, %4
  store float %mul2, ptr %y, align 4
  %6 = load float, ptr %invF, align 4
  %z = getelementptr inbounds %class.aiVector3t, ptr %this1, i32 0, i32 2
  %7 = load float, ptr %z, align 4
  %mul3 = fmul float %7, %6
  store float %mul3, ptr %z, align 4
  store ptr %this1, ptr %retval, align 8
  br label %return

return:                                           ; preds = %if.end, %if.then
  %8 = load ptr, ptr %retval, align 8
  ret ptr %8
}

; Function Attrs: mustprogress uwtable
define linkonce_odr hidden noundef float @_ZNK10aiVector3tIfE6LengthEv(ptr noundef nonnull align 4 dereferenceable(12) %this) #5 comdat align 2 {
entry:
  %this.addr = alloca ptr, align 8
  store ptr %this, ptr %this.addr, align 8
  %this1 = load ptr, ptr %this.addr, align 8
  %call = call noundef float @_ZNK10aiVector3tIfE12SquareLengthEv(ptr noundef nonnull align 4 dereferenceable(12) %this1)
  %call2 = call noundef float @_ZSt4sqrtf(float noundef %call)
  ret float %call2
}

; Function Attrs: mustprogress uwtable
define linkonce_odr hidden noundef nonnull align 4 dereferenceable(12) ptr @_ZN10aiVector3tIfE13NormalizeSafeEv(ptr noundef nonnull align 4 dereferenceable(12) %this) #5 comdat align 2 {
entry:
  %this.addr = alloca ptr, align 8
  %len = alloca float, align 4
  store ptr %this, ptr %this.addr, align 8
  %this1 = load ptr, ptr %this.addr, align 8
  %call = call noundef float @_ZNK10aiVector3tIfE6LengthEv(ptr noundef nonnull align 4 dereferenceable(12) %this1)
  store float %call, ptr %len, align 4
  %0 = load float, ptr %len, align 4
  %cmp = fcmp ogt float %0, 0.000000e+00
  br i1 %cmp, label %if.then, label %if.end

if.then:                                          ; preds = %entry
  %1 = load float, ptr %len, align 4
  %call2 = call noundef nonnull align 4 dereferenceable(12) ptr @_ZN10aiVector3tIfEdVEf(ptr noundef nonnull align 4 dereferenceable(12) %this1, float noundef %1)
  br label %if.end

if.end:                                           ; preds = %if.then, %entry
  ret ptr %this1
}

; Function Attrs: mustprogress uwtable
define void @aiVector3NormalizeSafe(ptr noundef %v) #5 {
entry:
  %v.addr = alloca ptr, align 8
  store ptr %v, ptr %v.addr, align 8
  %0 = load ptr, ptr %v.addr, align 8
  %call = call noundef nonnull align 4 dereferenceable(12) ptr @_ZN10aiVector3tIfE13NormalizeSafeEv(ptr noundef nonnull align 4 dereferenceable(12) %0)
  ret void
}