; Function Attrs: mustprogress nofree norecurse nosync nounwind willreturn memory(argmem: readwrite) uwtable
define void @aiVector3NormalizeSafe(ptr nocapture noundef %v) local_unnamed_addr #11 {
entry:
  %0 = load <2 x float>, ptr %v, align 4
  %1 = fmul <2 x float> %0, %0
  %mul4.i.i.i = extractelement <2 x float> %1, i64 1
  %2 = extractelement <2 x float> %0, i64 0
  %3 = tail call float @llvm.fmuladd.f32(float %2, float %2, float %mul4.i.i.i)
  %z.i.i.i = getelementptr inbounds i8, ptr %v, i64 8
  %4 = load float, ptr %z.i.i.i, align 4
  %5 = tail call noundef float @llvm.fmuladd.f32(float %4, float %4, float %3)
  %sqrt.i.i = tail call noundef float @llvm.sqrt.f32(float %5)
  %or.cond.i = fcmp ule float %sqrt.i.i, 0.000000e+00
  br i1 %or.cond.i, label %_ZN10aiVector3tIfE13NormalizeSafeEv.exit, label %if.end.i.i

if.end.i.i:                                       ; preds = %entry
  %div.i.i = fdiv float 1.000000e+00, %sqrt.i.i
  %6 = insertelement <2 x float> poison, float %div.i.i, i64 0
  %7 = shufflevector <2 x float> %6, <2 x float> poison, <2 x i32> zeroinitializer
  %8 = fmul <2 x float> %0, %7
  store <2 x float> %8, ptr %v, align 4
  %mul3.i.i = fmul float %4, %div.i.i
  store float %mul3.i.i, ptr %z.i.i.i, align 4
  br label %_ZN10aiVector3tIfE13NormalizeSafeEv.exit

_ZN10aiVector3tIfE13NormalizeSafeEv.exit:         ; preds = %entry, %if.end.i.i
  ret void
}